target datalayout = "e-m:e-p270:32:32-p271:32:32-p272:64:64-i64:64-i128:128-f80:128-n8:16:32:64-S128"
target triple = "x86_64-pc-linux-gnu"

; Function Attrs: nounwind uwtable
define hidden zeroext i1 @lexbor_str_data_ncmp_contain(ptr noundef %0, i64 noundef %1, ptr noundef %2, i64 noundef %3) #0 {
  %5 = alloca i1, align 1
  %6 = alloca ptr, align 8
  %7 = alloca i64, align 8
  %8 = alloca ptr, align 8
  %9 = alloca i64, align 8
  %10 = alloca i64, align 8
  store ptr %0, ptr %6, align 8
  store i64 %1, ptr %7, align 8
  store ptr %2, ptr %8, align 8
  store i64 %3, ptr %9, align 8
  store i64 0, ptr %10, align 8
  br label %11

11:                                               ; preds = %28, %4
  %12 = load i64, ptr %9, align 8
  %13 = load i64, ptr %7, align 8
  %14 = load i64, ptr %10, align 8
  %15 = sub i64 %13, %14
  %16 = icmp ule i64 %12, %15
  br i1 %16, label %17, label %31

17:                                               ; preds = %11
  %18 = load ptr, ptr %6, align 8
  %19 = load i64, ptr %10, align 8
  %20 = getelementptr inbounds i8, ptr %18, i64 %19
  %21 = load ptr, ptr %8, align 8
  %22 = load i64, ptr %9, align 8
  %23 = mul i64 1, %22
  %24 = call i32 @memcmp(ptr noundef %20, ptr noundef %21, i64 noundef %23) #5
  %25 = icmp eq i32 %24, 0
  br i1 %25, label %26, label %27

26:                                               ; preds = %17
  store i1 true, ptr %5, align 1
  br label %32

27:                                               ; preds = %17
  br label %28

28:                                               ; preds = %27
  %29 = load i64, ptr %10, align 8
  %30 = add i64 %29, 1
  store i64 %30, ptr %10, align 8
  br label %11

31:                                               ; preds = %11
  store i1 false, ptr %5, align 1
  br label %32

32:                                               ; preds = %31, %26
  %33 = load i1, ptr %5, align 1
  ret i1 %33
}