; Function Attrs: nofree nounwind memory(argmem: read) uwtable
define hidden noundef zeroext i1 @lexbor_str_data_ncmp_contain(ptr nocapture noundef readonly %0, i64 noundef %1, ptr nocapture noundef readonly %2, i64 noundef %3) local_unnamed_addr #9 {
  %.not10.not = icmp ult i64 %1, %3
  br i1 %.not10.not, label %._crit_edge, label %.lr.ph

5:                                                ; preds = %.lr.ph
  %6 = add i64 %.011, 1
  %7 = sub i64 %1, %6
  %.not.not = icmp ult i64 %7, %3
  br i1 %.not.not, label %._crit_edge, label %.lr.ph

.lr.ph:                                           ; preds = %4, %5
  %.011 = phi i64 [ %6, %5 ], [ 0, %4 ]
  %8 = getelementptr inbounds i8, ptr %0, i64 %.011
  %bcmp = tail call i32 @bcmp(ptr %8, ptr %2, i64 %3)
  %9 = icmp eq i32 %bcmp, 0
  br i1 %9, label %._crit_edge, label %5

._crit_edge:                                      ; preds = %.lr.ph, %5, %4
  %.not.lcssa = phi i1 [ false, %4 ], [ %9, %5 ], [ %9, %.lr.ph ]
  ret i1 %.not.lcssa
}